target datalayout = "e-m:e-p270:32:32-p271:32:32-p272:64:64-i64:64-i128:128-f80:128-n8:16:32:64-S128"
target triple = "x86_64-pc-linux-gnu"

%struct.packet_entry_header = type { i32, i32, i16, i16, i16, i16, i8, i8, i8, i8, i16, i16, i64, i64, i64 }
%struct.wtap = type { ptr, ptr, i8, i32, i32, ptr, ptr, ptr, i32, ptr, ptr, ptr, ptr, ptr, ptr, ptr, ptr, ptr, ptr, i32, i32, ptr, ptr, ptr, ptr }
%struct.observer_dump_private_state = type { i64, i8, i32 }
%struct.wtap_rec = type { i32, i32, i32, %struct.nstime_t, i32, %struct.nstime_t, i8, %union.anon, ptr, i8, %struct.Buffer, %struct.Buffer }
%struct.nstime_t = type { i64, i32 }
%union.anon = type { %struct.wtap_packet_header }
%struct.wtap_packet_header = type { i32, i32, i32, i32, %union.wtap_pseudo_header }
%union.wtap_pseudo_header = type { %struct.erf_mc_phdr }
%struct.erf_mc_phdr = type { %struct.erf_phdr, [16 x %struct.erf_ehdr], %union.anon.1 }
%struct.erf_phdr = type { i64, i8, i8, i16, i16, i16 }
%struct.erf_ehdr = type { i64 }
%union.anon.1 = type { i32 }
%struct.Buffer = type { ptr, i64, i64, i64 }
%struct.tm = type { i32, i32, i32, i32, i32, i32, i32, i32, i32, i64, ptr }

@gmt_to_localtime_offset = internal global i64 -1, align 8
@.str.16 = private unnamed_addr constant [43 x i8] c"Observer: bad record: Packet length %u < 4\00", align 1

; Function Attrs: nounwind null_pointer_is_valid sspstrong uwtable
define internal i32 @observer_to_wtap_encap(i32 noundef %0) #7 {
  %2 = alloca i32, align 4
  %3 = alloca i32, align 4
  store i32 %0, ptr %3, align 4
  %4 = load i32, ptr %3, align 4
  switch i32 %4, label %10 [
    i32 0, label %5
    i32 1, label %6
    i32 8, label %7
    i32 9, label %8
    i32 255, label %9
  ]

5:                                                ; preds = %1
  store i32 1, ptr %2, align 4
  br label %11

6:                                                ; preds = %1
  store i32 2, ptr %2, align 4
  br label %11

7:                                                ; preds = %1
  store i32 122, ptr %2, align 4
  br label %11

8:                                                ; preds = %1
  store i32 22, ptr %2, align 4
  br label %11

9:                                                ; preds = %1
  store i32 0, ptr %2, align 4
  br label %11

10:                                               ; preds = %1
  store i32 0, ptr %2, align 4
  br label %11

11:                                               ; preds = %10, %9, %8, %7, %6, %5
  %12 = load i32, ptr %2, align 4
  ret i32 %12
}

; Function Attrs: null_pointer_is_valid sspstrong uwtable
define internal zeroext i1 @process_packet_header(ptr noundef %0, ptr noundef %1, ptr noundef %2, ptr noundef %3, ptr noundef %4) #0 {
  %6 = alloca i1, align 1
  %7 = alloca ptr, align 8
  %8 = alloca ptr, align 8
  %9 = alloca ptr, align 8
  %10 = alloca ptr, align 8
  %11 = alloca ptr, align 8
  %12 = alloca ptr, align 8
  %13 = alloca %struct.tm, align 8
  %14 = alloca %struct.tm, align 8
  %15 = alloca i64, align 8
  store ptr %0, ptr %7, align 8
  store ptr %1, ptr %8, align 8
  store ptr %2, ptr %9, align 8
  store ptr %3, ptr %10, align 8
  store ptr %4, ptr %11, align 8
  %16 = load ptr, ptr %9, align 8
  %17 = getelementptr inbounds nuw %struct.wtap_rec, ptr %16, i32 0, i32 0
  store i32 0, ptr %17, align 8
  %18 = call ptr @wtap_block_create(i32 noundef 5)
  %19 = load ptr, ptr %9, align 8
  %20 = getelementptr inbounds nuw %struct.wtap_rec, ptr %19, i32 0, i32 8
  store ptr %18, ptr %20, align 8
  %21 = load ptr, ptr %9, align 8
  %22 = getelementptr inbounds nuw %struct.wtap_rec, ptr %21, i32 0, i32 1
  store i32 3, ptr %22, align 4
  %23 = load ptr, ptr %8, align 8
  %24 = getelementptr inbounds nuw %struct.packet_entry_header, ptr %23, i32 0, i32 6
  %25 = load i8, ptr %24, align 8
  %26 = zext i8 %25 to i32
  %27 = call i32 @observer_to_wtap_encap(i32 noundef %26)
  %28 = load ptr, ptr %9, align 8
  %29 = getelementptr inbounds nuw %struct.wtap_rec, ptr %28, i32 0, i32 7
  %30 = getelementptr inbounds nuw %struct.wtap_packet_header, ptr %29, i32 0, i32 2
  store i32 %27, ptr %30, align 8
  %31 = load ptr, ptr %7, align 8
  %32 = getelementptr inbounds nuw %struct.wtap, ptr %31, i32 0, i32 19
  %33 = load i32, ptr %32, align 8
  %34 = icmp eq i32 %33, 122
  br i1 %34, label %35, label %50

35:                                               ; preds = %5
  %36 = load ptr, ptr %8, align 8
  %37 = getelementptr inbounds nuw %struct.packet_entry_header, ptr %36, i32 0, i32 3
  %38 = load i16, ptr %37, align 2
  %39 = zext i16 %38 to i32
  %40 = load ptr, ptr %9, align 8
  %41 = getelementptr inbounds nuw %struct.wtap_rec, ptr %40, i32 0, i32 7
  %42 = getelementptr inbounds nuw %struct.wtap_packet_header, ptr %41, i32 0, i32 1
  store i32 %39, ptr %42, align 4
  %43 = load ptr, ptr %8, align 8
  %44 = getelementptr inbounds nuw %struct.packet_entry_header, ptr %43, i32 0, i32 2
  %45 = load i16, ptr %44, align 8
  %46 = zext i16 %45 to i32
  %47 = load ptr, ptr %9, align 8
  %48 = getelementptr inbounds nuw %struct.wtap_rec, ptr %47, i32 0, i32 7
  %49 = getelementptr inbounds nuw %struct.wtap_packet_header, ptr %48, i32 0, i32 0
  store i32 %46, ptr %49, align 8
  br label %97

50:                                               ; preds = %5
  %51 = load ptr, ptr %8, align 8
  %52 = getelementptr inbounds nuw %struct.packet_entry_header, ptr %51, i32 0, i32 3
  %53 = load i16, ptr %52, align 2
  %54 = zext i16 %53 to i32
  %55 = icmp slt i32 %54, 4
  br i1 %55, label %56, label %64

56:                                               ; preds = %50
  %57 = load ptr, ptr %10, align 8
  store i32 -13, ptr %57, align 4
  %58 = load ptr, ptr %8, align 8
  %59 = getelementptr inbounds nuw %struct.packet_entry_header, ptr %58, i32 0, i32 3
  %60 = load i16, ptr %59, align 2
  %61 = zext i16 %60 to i32
  %62 = call noalias ptr (ptr, ptr, ...) @wmem_strdup_printf(ptr noundef null, ptr noundef @.str.16, i32 noundef %61)
  %63 = load ptr, ptr %11, align 8
  store ptr %62, ptr %63, align 8
  store i1 false, ptr %6, align 1
  br label %152

64:                                               ; preds = %50
  %65 = load ptr, ptr %8, align 8
  %66 = getelementptr inbounds nuw %struct.packet_entry_header, ptr %65, i32 0, i32 3
  %67 = load i16, ptr %66, align 2
  %68 = zext i16 %67 to i32
  %69 = sub i32 %68, 4
  %70 = load ptr, ptr %9, align 8
  %71 = getelementptr inbounds nuw %struct.wtap_rec, ptr %70, i32 0, i32 7
  %72 = getelementptr inbounds nuw %struct.wtap_packet_header, ptr %71, i32 0, i32 1
  store i32 %69, ptr %72, align 4
  %73 = load ptr, ptr %8, align 8
  %74 = getelementptr inbounds nuw %struct.packet_entry_header, ptr %73, i32 0, i32 2
  %75 = load i16, ptr %74, align 8
  %76 = zext i16 %75 to i32
  %77 = load ptr, ptr %9, align 8
  %78 = getelementptr inbounds nuw %struct.wtap_rec, ptr %77, i32 0, i32 7
  %79 = getelementptr inbounds nuw %struct.wtap_packet_header, ptr %78, i32 0, i32 1
  %80 = load i32, ptr %79, align 4
  %81 = icmp ult i32 %76, %80
  br i1 %81, label %82, label %87

82:                                               ; preds = %64
  %83 = load ptr, ptr %8, align 8
  %84 = getelementptr inbounds nuw %struct.packet_entry_header, ptr %83, i32 0, i32 2
  %85 = load i16, ptr %84, align 8
  %86 = zext i16 %85 to i32
  br label %92

87:                                               ; preds = %64
  %88 = load ptr, ptr %9, align 8
  %89 = getelementptr inbounds nuw %struct.wtap_rec, ptr %88, i32 0, i32 7
  %90 = getelementptr inbounds nuw %struct.wtap_packet_header, ptr %89, i32 0, i32 1
  %91 = load i32, ptr %90, align 4
  br label %92

92:                                               ; preds = %87, %82
  %93 = phi i32 [ %86, %82 ], [ %91, %87 ]
  %94 = load ptr, ptr %9, align 8
  %95 = getelementptr inbounds nuw %struct.wtap_rec, ptr %94, i32 0, i32 7
  %96 = getelementptr inbounds nuw %struct.wtap_packet_header, ptr %95, i32 0, i32 0
  store i32 %93, ptr %96, align 8
  br label %97

97:                                               ; preds = %92, %35
  %98 = load ptr, ptr %8, align 8
  %99 = getelementptr inbounds nuw %struct.packet_entry_header, ptr %98, i32 0, i32 14
  %100 = load i64, ptr %99, align 8
  %101 = udiv i64 %100, 1000000000
  %102 = add i64 %101, 946684800
  %103 = load ptr, ptr %9, align 8
  %104 = getelementptr inbounds nuw %struct.wtap_rec, ptr %103, i32 0, i32 3
  %105 = getelementptr inbounds nuw %struct.nstime_t, ptr %104, i32 0, i32 0
  store i64 %102, ptr %105, align 8
  %106 = load ptr, ptr %8, align 8
  %107 = getelementptr inbounds nuw %struct.packet_entry_header, ptr %106, i32 0, i32 14
  %108 = load i64, ptr %107, align 8
  %109 = urem i64 %108, 1000000000
  %110 = trunc i64 %109 to i32
  %111 = load ptr, ptr %9, align 8
  %112 = getelementptr inbounds nuw %struct.wtap_rec, ptr %111, i32 0, i32 3
  %113 = getelementptr inbounds nuw %struct.nstime_t, ptr %112, i32 0, i32 1
  store i32 %110, ptr %113, align 8
  %114 = load ptr, ptr %7, align 8
  %115 = getelementptr inbounds nuw %struct.wtap, ptr %114, i32 0, i32 13
  %116 = load ptr, ptr %115, align 8
  %117 = getelementptr inbounds nuw %struct.observer_dump_private_state, ptr %116, i32 0, i32 2
  %118 = load i32, ptr %117, align 4
  %119 = icmp eq i32 %118, 0
  br i1 %119, label %120, label %151

120:                                              ; preds = %97
  call void @llvm.lifetime.start.p0(i64 8, ptr %12) #12
  call void @llvm.lifetime.start.p0(i64 56, ptr %13) #12
  call void @llvm.lifetime.start.p0(i64 56, ptr %14) #12
  call void @llvm.lifetime.start.p0(i64 8, ptr %15) #12
  %121 = load i64, ptr @gmt_to_localtime_offset, align 8
  %122 = load ptr, ptr %9, align 8
  %123 = getelementptr inbounds nuw %struct.wtap_rec, ptr %122, i32 0, i32 3
  %124 = getelementptr inbounds nuw %struct.nstime_t, ptr %123, i32 0, i32 0
  %125 = load i64, ptr %124, align 8
  %126 = add i64 %125, %121
  store i64 %126, ptr %124, align 8
  %127 = load ptr, ptr %9, align 8
  %128 = getelementptr inbounds nuw %struct.wtap_rec, ptr %127, i32 0, i32 3
  %129 = getelementptr inbounds nuw %struct.nstime_t, ptr %128, i32 0, i32 0
  %130 = call ptr @localtime(ptr noundef %129) #12
  store ptr %130, ptr %12, align 8
  %131 = load ptr, ptr %12, align 8
  %132 = icmp ne ptr %131, null
  br i1 %132, label %133, label %150

133:                                              ; preds = %120
  %134 = load ptr, ptr %12, align 8
  call void @llvm.memcpy.p0.p0.i64(ptr align 8 %14, ptr align 8 %134, i64 56, i1 false)
  %135 = getelementptr inbounds nuw %struct.tm, ptr %14, i32 0, i32 8
  %136 = load i32, ptr %135, align 8
  %137 = icmp sgt i32 %136, 0
  br i1 %137, label %138, label %149

138:                                              ; preds = %133
  call void @llvm.memcpy.p0.p0.i64(ptr align 8 %13, ptr align 8 %14, i64 56, i1 false)
  %139 = getelementptr inbounds nuw %struct.tm, ptr %14, i32 0, i32 8
  store i32 0, ptr %139, align 8
  %140 = call i64 @mktime(ptr noundef %14) #12
  %141 = call i64 @mktime(ptr noundef %13) #12
  %142 = sub i64 %140, %141
  store i64 %142, ptr %15, align 8
  %143 = load i64, ptr %15, align 8
  %144 = load ptr, ptr %9, align 8
  %145 = getelementptr inbounds nuw %struct.wtap_rec, ptr %144, i32 0, i32 3
  %146 = getelementptr inbounds nuw %struct.nstime_t, ptr %145, i32 0, i32 0
  %147 = load i64, ptr %146, align 8
  %148 = sub i64 %147, %143
  store i64 %148, ptr %146, align 8
  br label %149

149:                                              ; preds = %138, %133
  br label %150

150:                                              ; preds = %149, %120
  call void @llvm.lifetime.end.p0(i64 8, ptr %15) #12
  call void @llvm.lifetime.end.p0(i64 56, ptr %14) #12
  call void @llvm.lifetime.end.p0(i64 56, ptr %13) #12
  call void @llvm.lifetime.end.p0(i64 8, ptr %12) #12
  br label %151

151:                                              ; preds = %150, %97
  store i1 true, ptr %6, align 1
  br label %152

152:                                              ; preds = %151, %56
  %153 = load i1, ptr %6, align 1
  ret i1 %153
}