; Function Attrs: null_pointer_is_valid sspstrong uwtable
define internal fastcc noundef zeroext i1 @process_packet_header(ptr noundef readonly captures(none) %0, ptr noundef readonly captures(none) %1, ptr noundef initializes((0, 8), (72, 76), (232, 240)) %2, ptr noundef writeonly captures(none) %3, ptr noundef writeonly captures(none) %4) unnamed_addr #0 {
  %6 = alloca %struct.tm, align 8
  %7 = alloca %struct.tm, align 8
  store i32 0, ptr %2, align 8
  %8 = tail call ptr @wtap_block_create(i32 noundef 5)
  %9 = getelementptr inbounds nuw i8, ptr %2, i64 232
  store ptr %8, ptr %9, align 8
  %10 = getelementptr inbounds nuw i8, ptr %2, i64 4
  store i32 3, ptr %10, align 4
  %11 = getelementptr inbounds nuw i8, ptr %1, i64 16
  %12 = load i8, ptr %11, align 8
  %13 = icmp ult i8 %12, 10
  br i1 %13, label %switch.lookup, label %observer_to_wtap_encap.exit

switch.lookup:                                    ; preds = %5
  %14 = zext nneg i8 %12 to i64
  %switch.gep = getelementptr inbounds nuw [10 x i32], ptr @switch.table.process_packet_header, i64 0, i64 %14
  %switch.load = load i32, ptr %switch.gep, align 4
  br label %observer_to_wtap_encap.exit

observer_to_wtap_encap.exit:                      ; preds = %5, %switch.lookup
  %.0.i = phi i32 [ %switch.load, %switch.lookup ], [ 0, %5 ]
  %15 = getelementptr inbounds nuw i8, ptr %2, i64 64
  %16 = getelementptr inbounds nuw i8, ptr %2, i64 72
  store i32 %.0.i, ptr %16, align 8
  %17 = getelementptr inbounds nuw i8, ptr %0, i64 144
  %18 = load i32, ptr %17, align 8
  %19 = icmp eq i32 %18, 122
  %20 = getelementptr inbounds nuw i8, ptr %1, i64 10
  %21 = load i16, ptr %20, align 2
  br i1 %19, label %22, label %28

22:                                               ; preds = %observer_to_wtap_encap.exit
  %23 = zext i16 %21 to i32
  %24 = getelementptr inbounds nuw i8, ptr %2, i64 68
  store i32 %23, ptr %24, align 4
  %25 = getelementptr inbounds nuw i8, ptr %1, i64 8
  %26 = load i16, ptr %25, align 8
  %27 = zext i16 %26 to i32
  br label %41

28:                                               ; preds = %observer_to_wtap_encap.exit
  %29 = icmp ult i16 %21, 4
  br i1 %29, label %30, label %34

30:                                               ; preds = %28
  store i32 -13, ptr %3, align 4
  %31 = load i16, ptr %20, align 2
  %32 = zext i16 %31 to i32
  %33 = tail call noalias ptr (ptr, ptr, ...) @wmem_strdup_printf(ptr noundef null, ptr noundef nonnull @.str.16, i32 noundef %32)
  store ptr %33, ptr %4, align 8
  br label %70

34:                                               ; preds = %28
  %35 = zext i16 %21 to i32
  %36 = add nsw i32 %35, -4
  %37 = getelementptr inbounds nuw i8, ptr %2, i64 68
  store i32 %36, ptr %37, align 4
  %38 = getelementptr inbounds nuw i8, ptr %1, i64 8
  %39 = load i16, ptr %38, align 8
  %40 = zext i16 %39 to i32
  %. = tail call i32 @llvm.umin.i32(i32 %36, i32 %40)
  br label %41

41:                                               ; preds = %34, %22
  %storemerge = phi i32 [ %., %34 ], [ %27, %22 ]
  store i32 %storemerge, ptr %15, align 8
  %42 = getelementptr inbounds nuw i8, ptr %1, i64 40
  %43 = load i64, ptr %42, align 8
  %44 = udiv i64 %43, 1000000000
  %45 = add nuw nsw i64 %44, 946684800
  %46 = getelementptr inbounds nuw i8, ptr %2, i64 16
  store i64 %45, ptr %46, align 8
  %47 = load i64, ptr %42, align 8
  %48 = urem i64 %47, 1000000000
  %49 = trunc nuw nsw i64 %48 to i32
  %50 = getelementptr inbounds nuw i8, ptr %2, i64 24
  store i32 %49, ptr %50, align 8
  %51 = getelementptr inbounds nuw i8, ptr %0, i64 96
  %52 = load ptr, ptr %51, align 8
  %53 = getelementptr inbounds nuw i8, ptr %52, i64 12
  %54 = load i32, ptr %53, align 4
  %55 = icmp eq i32 %54, 0
  br i1 %55, label %56, label %70

56:                                               ; preds = %41
  call void @llvm.lifetime.start.p0(i64 56, ptr nonnull %6) #14
  call void @llvm.lifetime.start.p0(i64 56, ptr nonnull %7) #14
  %57 = load i64, ptr @gmt_to_localtime_offset, align 8
  %58 = add i64 %57, %45
  store i64 %58, ptr %46, align 8
  %59 = tail call ptr @localtime(ptr noundef nonnull %46) #14
  %.not = icmp eq ptr %59, null
  br i1 %.not, label %69, label %60

60:                                               ; preds = %56
  call void @llvm.memcpy.p0.p0.i64(ptr noundef nonnull align 8 dereferenceable(56) %7, ptr noundef nonnull align 8 dereferenceable(56) %59, i64 56, i1 false)
  %61 = getelementptr inbounds nuw i8, ptr %7, i64 32
  %62 = load i32, ptr %61, align 8
  %63 = icmp sgt i32 %62, 0
  br i1 %63, label %64, label %69

64:                                               ; preds = %60
  call void @llvm.memcpy.p0.p0.i64(ptr noundef nonnull align 8 dereferenceable(56) %6, ptr noundef nonnull align 8 dereferenceable(56) %59, i64 56, i1 false)
  store i32 0, ptr %61, align 8
  %65 = call i64 @mktime(ptr noundef nonnull %7) #14
  %66 = call i64 @mktime(ptr noundef nonnull %6) #14
  %.neg = sub i64 %66, %65
  %67 = load i64, ptr %46, align 8
  %68 = add i64 %.neg, %67
  store i64 %68, ptr %46, align 8
  br label %69

69:                                               ; preds = %60, %64, %56
  call void @llvm.lifetime.end.p0(i64 56, ptr nonnull %7) #14
  call void @llvm.lifetime.end.p0(i64 56, ptr nonnull %6) #14
  br label %70

70:                                               ; preds = %41, %69, %30
  %.0 = phi i1 [ false, %30 ], [ true, %69 ], [ true, %41 ]
  ret i1 %.0
}